; Function Attrs: nounwind uwtable
define internal void @dom_xpath_ext_function_string_php(ptr noundef %0, i32 noundef %1) #0 {
  %3 = tail call zeroext i1 @zend_is_executing() #12
  br i1 %3, label %4, label %10, !prof !127

4:                                                ; preds = %2
  %5 = getelementptr inbounds nuw i8, ptr %0, i64 24
  %6 = load ptr, ptr %5, align 8, !tbaa !131
  %7 = getelementptr inbounds nuw i8, ptr %6, i64 216
  %8 = load ptr, ptr %7, align 8, !tbaa !70
  %9 = icmp eq ptr %8, null
  br i1 %9, label %10, label %dom_xpath_ext_fetch_intern.exit.i, !prof !54

10:                                               ; preds = %4, %2
  %.str.11.sink.i.i = phi ptr [ @.str.10, %2 ], [ @.str.11, %4 ]
  %11 = tail call ptr @__xmlGenericError() #12
  %12 = load ptr, ptr %11, align 8, !tbaa !137
  %13 = tail call ptr @__xmlGenericErrorContext() #12
  %14 = load ptr, ptr %13, align 8, !tbaa !137
  tail call void (ptr, ptr, ...) %12(ptr noundef %14, ptr noundef nonnull %.str.11.sink.i.i) #12
  tail call void @php_dom_xpath_callbacks_clean_argument_stack(ptr noundef %0, i32 noundef %1) #12
  br label %dom_xpath_ext_function_php.exit

dom_xpath_ext_fetch_intern.exit.i:                ; preds = %4
  %15 = getelementptr inbounds nuw i8, ptr %8, i64 32
  %16 = tail call i32 @php_dom_xpath_callbacks_call_php_ns(ptr noundef nonnull %8, ptr noundef nonnull %0, i32 noundef %1, i32 noundef 0, ptr noundef nonnull %15, ptr noundef nonnull @dom_xpath_proxy_factory) #12
  br label %dom_xpath_ext_function_php.exit

dom_xpath_ext_function_php.exit:                  ; preds = %10, %dom_xpath_ext_fetch_intern.exit.i
  ret void
}